; Function Attrs: mustprogress nofree norecurse nosync nounwind willreturn memory(read, inaccessiblemem: none) uwtable
define hidden noundef zeroext i1 @_ZN4cvc58internal3smt11SygusSolver23canTrustSynthesisResultERKNS0_7OptionsE(ptr nocapture noundef nonnull readonly align 8 dereferenceable(392) %opts) local_unnamed_addr #7 align 2 {
entry:
  %quantifiers = getelementptr inbounds i8, ptr %opts, i64 328
  %0 = load ptr, ptr %quantifiers, align 8
  %cegisSample = getelementptr inbounds i8, ptr %0, i64 20
  %1 = load i32, ptr %cegisSample, align 4
  %cmp = icmp ne i32 %1, 2
  ret i1 %cmp
}